target datalayout = "e-m:e-p270:32:32-p271:32:32-p272:64:64-i64:64-i128:128-f80:128-n8:16:32:64-S128"
target triple = "x86_64-pc-linux-gnu"

%"struct.Luau::CodeGen::IrOp" = type { i32 }

; Function Attrs: mustprogress uwtable
define dso_local void @_ZN4Luau7CodeGen23translateInstJumpIfCondERNS0_9IrBuilderEPKjiNS0_11IrConditionE(ptr noundef nonnull align 8 dereferenceable(752) %0, ptr noundef %1, i32 noundef %2, i8 noundef zeroext %3) #0 {
  %5 = alloca ptr, align 8
  %6 = alloca ptr, align 8
  %7 = alloca i32, align 4
  %8 = alloca i8, align 1
  %9 = alloca i32, align 4
  %10 = alloca i32, align 4
  %11 = alloca %"struct.Luau::CodeGen::IrOp", align 4
  %12 = alloca %"struct.Luau::CodeGen::IrOp", align 4
  %13 = alloca %"struct.Luau::CodeGen::IrOp", align 4
  %14 = alloca %"struct.Luau::CodeGen::IrOp", align 4
  %15 = alloca %"struct.Luau::CodeGen::IrOp", align 4
  %16 = alloca %"struct.Luau::CodeGen::IrOp", align 4
  %17 = alloca %"struct.Luau::CodeGen::IrOp", align 4
  %18 = alloca %"struct.Luau::CodeGen::IrOp", align 4
  %19 = alloca %"struct.Luau::CodeGen::IrOp", align 4
  %20 = alloca %"struct.Luau::CodeGen::IrOp", align 4
  %21 = alloca %"struct.Luau::CodeGen::IrOp", align 4
  %22 = alloca %"struct.Luau::CodeGen::IrOp", align 4
  %23 = alloca %"struct.Luau::CodeGen::IrOp", align 4
  %24 = alloca %"struct.Luau::CodeGen::IrOp", align 4
  %25 = alloca %"struct.Luau::CodeGen::IrOp", align 4
  %26 = alloca %"struct.Luau::CodeGen::IrOp", align 4
  %27 = alloca %"struct.Luau::CodeGen::IrOp", align 4
  %28 = alloca %"struct.Luau::CodeGen::IrOp", align 4
  %29 = alloca %"struct.Luau::CodeGen::IrOp", align 4
  %30 = alloca %"struct.Luau::CodeGen::IrOp", align 4
  %31 = alloca %"struct.Luau::CodeGen::IrOp", align 4
  %32 = alloca %"struct.Luau::CodeGen::IrOp", align 4
  %33 = alloca %"struct.Luau::CodeGen::IrOp", align 4
  %34 = alloca %"struct.Luau::CodeGen::IrOp", align 4
  %35 = alloca %"struct.Luau::CodeGen::IrOp", align 4
  %36 = alloca %"struct.Luau::CodeGen::IrOp", align 4
  %37 = alloca %"struct.Luau::CodeGen::IrOp", align 4
  %38 = alloca %"struct.Luau::CodeGen::IrOp", align 4
  %39 = alloca i8, align 1
  %40 = alloca %"struct.Luau::CodeGen::IrOp", align 4
  %41 = alloca %"struct.Luau::CodeGen::IrOp", align 4
  %42 = alloca %"struct.Luau::CodeGen::IrOp", align 4
  %43 = alloca %"struct.Luau::CodeGen::IrOp", align 4
  %44 = alloca %"struct.Luau::CodeGen::IrOp", align 4
  %45 = alloca %"struct.Luau::CodeGen::IrOp", align 4
  %46 = alloca %"struct.Luau::CodeGen::IrOp", align 4
  %47 = alloca %"struct.Luau::CodeGen::IrOp", align 4
  %48 = alloca %"struct.Luau::CodeGen::IrOp", align 4
  %49 = alloca %"struct.Luau::CodeGen::IrOp", align 4
  %50 = alloca %"struct.Luau::CodeGen::IrOp", align 4
  store ptr %0, ptr %5, align 8, !tbaa !4
  store ptr %1, ptr %6, align 8, !tbaa !9
  store i32 %2, ptr %7, align 4, !tbaa !11
  store i8 %3, ptr %8, align 1, !tbaa !116
  call void @llvm.lifetime.start.p0(i64 4, ptr %9) #13
  %51 = load ptr, ptr %6, align 8, !tbaa !9
  %52 = load i32, ptr %51, align 4, !tbaa !11
  %53 = lshr i32 %52, 8
  %54 = and i32 %53, 255
  store i32 %54, ptr %9, align 4, !tbaa !11
  call void @llvm.lifetime.start.p0(i64 4, ptr %10) #13
  %55 = load ptr, ptr %6, align 8, !tbaa !9
  %56 = getelementptr inbounds i32, ptr %55, i64 1
  %57 = load i32, ptr %56, align 4, !tbaa !11
  store i32 %57, ptr %10, align 4, !tbaa !11
  call void @llvm.lifetime.start.p0(i64 4, ptr %11) #13
  %58 = load ptr, ptr %5, align 8, !tbaa !4
  %59 = load i32, ptr %7, align 4, !tbaa !11
  %60 = add nsw i32 %59, 1
  %61 = load ptr, ptr %6, align 8, !tbaa !9
  %62 = load i32, ptr %61, align 4, !tbaa !11
  %63 = ashr i32 %62, 16
  %64 = add nsw i32 %60, %63
  %65 = call i32 @_ZN4Luau7CodeGen9IrBuilder11blockAtInstEj(ptr noundef nonnull align 8 dereferenceable(752) %58, i32 noundef %64)
  %66 = getelementptr inbounds nuw %"struct.Luau::CodeGen::IrOp", ptr %11, i32 0, i32 0
  store i32 %65, ptr %66, align 4
  call void @llvm.lifetime.start.p0(i64 4, ptr %12) #13
  %67 = load ptr, ptr %5, align 8, !tbaa !4
  %68 = load i32, ptr %7, align 4, !tbaa !11
  %69 = add nsw i32 %68, 2
  %70 = call i32 @_ZN4Luau7CodeGen9IrBuilder11blockAtInstEj(ptr noundef nonnull align 8 dereferenceable(752) %67, i32 noundef %69)
  %71 = getelementptr inbounds nuw %"struct.Luau::CodeGen::IrOp", ptr %12, i32 0, i32 0
  store i32 %70, ptr %71, align 4
  call void @llvm.lifetime.start.p0(i64 4, ptr %13) #13
  %72 = load ptr, ptr %5, align 8, !tbaa !4
  %73 = call i32 @_ZN4Luau7CodeGen9IrBuilder5blockENS0_11IrBlockKindE(ptr noundef nonnull align 8 dereferenceable(752) %72, i8 noundef zeroext 1)
  %74 = getelementptr inbounds nuw %"struct.Luau::CodeGen::IrOp", ptr %13, i32 0, i32 0
  store i32 %73, ptr %74, align 4
  call void @llvm.lifetime.start.p0(i64 4, ptr %14) #13
  %75 = load ptr, ptr %5, align 8, !tbaa !4
  %76 = load ptr, ptr %5, align 8, !tbaa !4
  %77 = load i32, ptr %9, align 4, !tbaa !11
  %78 = trunc i32 %77 to i8
  %79 = call i32 @_ZN4Luau7CodeGen9IrBuilder5vmRegEh(ptr noundef nonnull align 8 dereferenceable(752) %76, i8 noundef zeroext %78)
  %80 = getelementptr inbounds nuw %"struct.Luau::CodeGen::IrOp", ptr %15, i32 0, i32 0
  store i32 %79, ptr %80, align 4
  %81 = getelementptr inbounds nuw %"struct.Luau::CodeGen::IrOp", ptr %15, i32 0, i32 0
  %82 = load i32, ptr %81, align 4
  %83 = call i32 @_ZN4Luau7CodeGen9IrBuilder4instENS0_5IrCmdENS0_4IrOpE(ptr noundef nonnull align 8 dereferenceable(752) %75, i8 noundef zeroext 1, i32 %82)
  %84 = getelementptr inbounds nuw %"struct.Luau::CodeGen::IrOp", ptr %14, i32 0, i32 0
  store i32 %83, ptr %84, align 4
  %85 = load ptr, ptr %5, align 8, !tbaa !4
  call void @llvm.memcpy.p0.p0.i64(ptr align 4 %16, ptr align 4 %14, i64 4, i1 false), !tbaa.struct !112
  %86 = load ptr, ptr %5, align 8, !tbaa !4
  %87 = call i32 @_ZN4Luau7CodeGen9IrBuilder8constTagEh(ptr noundef nonnull align 8 dereferenceable(752) %86, i8 noundef zeroext 3)
  %88 = getelementptr inbounds nuw %"struct.Luau::CodeGen::IrOp", ptr %17, i32 0, i32 0
  store i32 %87, ptr %88, align 4
  call void @llvm.memcpy.p0.p0.i64(ptr align 4 %18, ptr align 4 %13, i64 4, i1 false), !tbaa.struct !112
  %89 = getelementptr inbounds nuw %"struct.Luau::CodeGen::IrOp", ptr %16, i32 0, i32 0
  %90 = load i32, ptr %89, align 4
  %91 = getelementptr inbounds nuw %"struct.Luau::CodeGen::IrOp", ptr %17, i32 0, i32 0
  %92 = load i32, ptr %91, align 4
  %93 = getelementptr inbounds nuw %"struct.Luau::CodeGen::IrOp", ptr %18, i32 0, i32 0
  %94 = load i32, ptr %93, align 4
  %95 = call i32 @_ZN4Luau7CodeGen9IrBuilder4instENS0_5IrCmdENS0_4IrOpES3_S3_(ptr noundef nonnull align 8 dereferenceable(752) %85, i8 noundef zeroext 82, i32 %90, i32 %92, i32 %94)
  %96 = getelementptr inbounds nuw %"struct.Luau::CodeGen::IrOp", ptr %19, i32 0, i32 0
  store i32 %95, ptr %96, align 4
  call void @llvm.lifetime.start.p0(i64 4, ptr %20) #13
  %97 = load ptr, ptr %5, align 8, !tbaa !4
  %98 = load ptr, ptr %5, align 8, !tbaa !4
  %99 = load i32, ptr %10, align 4, !tbaa !11
  %100 = trunc i32 %99 to i8
  %101 = call i32 @_ZN4Luau7CodeGen9IrBuilder5vmRegEh(ptr noundef nonnull align 8 dereferenceable(752) %98, i8 noundef zeroext %100)
  %102 = getelementptr inbounds nuw %"struct.Luau::CodeGen::IrOp", ptr %21, i32 0, i32 0
  store i32 %101, ptr %102, align 4
  %103 = getelementptr inbounds nuw %"struct.Luau::CodeGen::IrOp", ptr %21, i32 0, i32 0
  %104 = load i32, ptr %103, align 4
  %105 = call i32 @_ZN4Luau7CodeGen9IrBuilder4instENS0_5IrCmdENS0_4IrOpE(ptr noundef nonnull align 8 dereferenceable(752) %97, i8 noundef zeroext 1, i32 %104)
  %106 = getelementptr inbounds nuw %"struct.Luau::CodeGen::IrOp", ptr %20, i32 0, i32 0
  store i32 %105, ptr %106, align 4
  %107 = load ptr, ptr %5, align 8, !tbaa !4
  call void @llvm.memcpy.p0.p0.i64(ptr align 4 %22, ptr align 4 %20, i64 4, i1 false), !tbaa.struct !112
  %108 = load ptr, ptr %5, align 8, !tbaa !4
  %109 = call i32 @_ZN4Luau7CodeGen9IrBuilder8constTagEh(ptr noundef nonnull align 8 dereferenceable(752) %108, i8 noundef zeroext 3)
  %110 = getelementptr inbounds nuw %"struct.Luau::CodeGen::IrOp", ptr %23, i32 0, i32 0
  store i32 %109, ptr %110, align 4
  call void @llvm.memcpy.p0.p0.i64(ptr align 4 %24, ptr align 4 %13, i64 4, i1 false), !tbaa.struct !112
  %111 = getelementptr inbounds nuw %"struct.Luau::CodeGen::IrOp", ptr %22, i32 0, i32 0
  %112 = load i32, ptr %111, align 4
  %113 = getelementptr inbounds nuw %"struct.Luau::CodeGen::IrOp", ptr %23, i32 0, i32 0
  %114 = load i32, ptr %113, align 4
  %115 = getelementptr inbounds nuw %"struct.Luau::CodeGen::IrOp", ptr %24, i32 0, i32 0
  %116 = load i32, ptr %115, align 4
  %117 = call i32 @_ZN4Luau7CodeGen9IrBuilder4instENS0_5IrCmdENS0_4IrOpES3_S3_(ptr noundef nonnull align 8 dereferenceable(752) %107, i8 noundef zeroext 82, i32 %112, i32 %114, i32 %116)
  %118 = getelementptr inbounds nuw %"struct.Luau::CodeGen::IrOp", ptr %25, i32 0, i32 0
  store i32 %117, ptr %118, align 4
  call void @llvm.lifetime.start.p0(i64 4, ptr %26) #13
  %119 = load ptr, ptr %5, align 8, !tbaa !4
  %120 = load ptr, ptr %5, align 8, !tbaa !4
  %121 = load i32, ptr %9, align 4, !tbaa !11
  %122 = trunc i32 %121 to i8
  %123 = call i32 @_ZN4Luau7CodeGen9IrBuilder5vmRegEh(ptr noundef nonnull align 8 dereferenceable(752) %120, i8 noundef zeroext %122)
  %124 = getelementptr inbounds nuw %"struct.Luau::CodeGen::IrOp", ptr %27, i32 0, i32 0
  store i32 %123, ptr %124, align 4
  %125 = getelementptr inbounds nuw %"struct.Luau::CodeGen::IrOp", ptr %27, i32 0, i32 0
  %126 = load i32, ptr %125, align 4
  %127 = call i32 @_ZN4Luau7CodeGen9IrBuilder4instENS0_5IrCmdENS0_4IrOpE(ptr noundef nonnull align 8 dereferenceable(752) %119, i8 noundef zeroext 3, i32 %126)
  %128 = getelementptr inbounds nuw %"struct.Luau::CodeGen::IrOp", ptr %26, i32 0, i32 0
  store i32 %127, ptr %128, align 4
  call void @llvm.lifetime.start.p0(i64 4, ptr %28) #13
  %129 = load ptr, ptr %5, align 8, !tbaa !4
  %130 = load ptr, ptr %5, align 8, !tbaa !4
  %131 = load i32, ptr %10, align 4, !tbaa !11
  %132 = trunc i32 %131 to i8
  %133 = call i32 @_ZN4Luau7CodeGen9IrBuilder5vmRegEh(ptr noundef nonnull align 8 dereferenceable(752) %130, i8 noundef zeroext %132)
  %134 = getelementptr inbounds nuw %"struct.Luau::CodeGen::IrOp", ptr %29, i32 0, i32 0
  store i32 %133, ptr %134, align 4
  %135 = getelementptr inbounds nuw %"struct.Luau::CodeGen::IrOp", ptr %29, i32 0, i32 0
  %136 = load i32, ptr %135, align 4
  %137 = call i32 @_ZN4Luau7CodeGen9IrBuilder4instENS0_5IrCmdENS0_4IrOpE(ptr noundef nonnull align 8 dereferenceable(752) %129, i8 noundef zeroext 3, i32 %136)
  %138 = getelementptr inbounds nuw %"struct.Luau::CodeGen::IrOp", ptr %28, i32 0, i32 0
  store i32 %137, ptr %138, align 4
  %139 = load ptr, ptr %5, align 8, !tbaa !4
  call void @llvm.memcpy.p0.p0.i64(ptr align 4 %30, ptr align 4 %26, i64 4, i1 false), !tbaa.struct !112
  call void @llvm.memcpy.p0.p0.i64(ptr align 4 %31, ptr align 4 %28, i64 4, i1 false), !tbaa.struct !112
  %140 = load ptr, ptr %5, align 8, !tbaa !4
  %141 = load i8, ptr %8, align 1, !tbaa !116
  %142 = call i32 @_ZN4Luau7CodeGen9IrBuilder4condENS0_11IrConditionE(ptr noundef nonnull align 8 dereferenceable(752) %140, i8 noundef zeroext %141)
  %143 = getelementptr inbounds nuw %"struct.Luau::CodeGen::IrOp", ptr %32, i32 0, i32 0
  store i32 %142, ptr %143, align 4
  call void @llvm.memcpy.p0.p0.i64(ptr align 4 %33, ptr align 4 %11, i64 4, i1 false), !tbaa.struct !112
  call void @llvm.memcpy.p0.p0.i64(ptr align 4 %34, ptr align 4 %12, i64 4, i1 false), !tbaa.struct !112
  %144 = getelementptr inbounds nuw %"struct.Luau::CodeGen::IrOp", ptr %30, i32 0, i32 0
  %145 = load i32, ptr %144, align 4
  %146 = getelementptr inbounds nuw %"struct.Luau::CodeGen::IrOp", ptr %31, i32 0, i32 0
  %147 = load i32, ptr %146, align 4
  %148 = getelementptr inbounds nuw %"struct.Luau::CodeGen::IrOp", ptr %32, i32 0, i32 0
  %149 = load i32, ptr %148, align 4
  %150 = getelementptr inbounds nuw %"struct.Luau::CodeGen::IrOp", ptr %33, i32 0, i32 0
  %151 = load i32, ptr %150, align 4
  %152 = getelementptr inbounds nuw %"struct.Luau::CodeGen::IrOp", ptr %34, i32 0, i32 0
  %153 = load i32, ptr %152, align 4
  %154 = call i32 @_ZN4Luau7CodeGen9IrBuilder4instENS0_5IrCmdENS0_4IrOpES3_S3_S3_S3_(ptr noundef nonnull align 8 dereferenceable(752) %139, i8 noundef zeroext 52, i32 %145, i32 %147, i32 %149, i32 %151, i32 %153)
  %155 = getelementptr inbounds nuw %"struct.Luau::CodeGen::IrOp", ptr %35, i32 0, i32 0
  store i32 %154, ptr %155, align 4
  %156 = load ptr, ptr %5, align 8, !tbaa !4
  call void @llvm.memcpy.p0.p0.i64(ptr align 4 %36, ptr align 4 %13, i64 4, i1 false), !tbaa.struct !112
  %157 = getelementptr inbounds nuw %"struct.Luau::CodeGen::IrOp", ptr %36, i32 0, i32 0
  %158 = load i32, ptr %157, align 4
  call void @_ZN4Luau7CodeGen9IrBuilder10beginBlockENS0_4IrOpE(ptr noundef nonnull align 8 dereferenceable(752) %156, i32 %158)
  %159 = load ptr, ptr %5, align 8, !tbaa !4
  %160 = load ptr, ptr %5, align 8, !tbaa !4
  %161 = load i32, ptr %7, align 4, !tbaa !11
  %162 = add nsw i32 %161, 1
  %163 = call i32 @_ZN4Luau7CodeGen9IrBuilder9constUintEj(ptr noundef nonnull align 8 dereferenceable(752) %160, i32 noundef %162)
  %164 = getelementptr inbounds nuw %"struct.Luau::CodeGen::IrOp", ptr %37, i32 0, i32 0
  store i32 %163, ptr %164, align 4
  %165 = getelementptr inbounds nuw %"struct.Luau::CodeGen::IrOp", ptr %37, i32 0, i32 0
  %166 = load i32, ptr %165, align 4
  %167 = call i32 @_ZN4Luau7CodeGen9IrBuilder4instENS0_5IrCmdENS0_4IrOpE(ptr noundef nonnull align 8 dereferenceable(752) %159, i8 noundef zeroext 98, i32 %166)
  %168 = getelementptr inbounds nuw %"struct.Luau::CodeGen::IrOp", ptr %38, i32 0, i32 0
  store i32 %167, ptr %168, align 4
  call void @llvm.lifetime.start.p0(i64 1, ptr %39) #13
  store i8 0, ptr %39, align 1, !tbaa !113
  %169 = load i8, ptr %8, align 1, !tbaa !116
  %170 = icmp eq i8 %169, 5
  br i1 %170, label %171, label %172

171:                                              ; preds = %4
  store i8 1, ptr %39, align 1, !tbaa !113
  store i8 4, ptr %8, align 1, !tbaa !116
  br label %182

172:                                              ; preds = %4
  %173 = load i8, ptr %8, align 1, !tbaa !116
  %174 = icmp eq i8 %173, 3
  br i1 %174, label %175, label %176

175:                                              ; preds = %172
  store i8 1, ptr %39, align 1, !tbaa !113
  store i8 2, ptr %8, align 1, !tbaa !116
  br label %181

176:                                              ; preds = %172
  %177 = load i8, ptr %8, align 1, !tbaa !116
  %178 = icmp eq i8 %177, 1
  br i1 %178, label %179, label %180

179:                                              ; preds = %176
  store i8 1, ptr %39, align 1, !tbaa !113
  store i8 0, ptr %8, align 1, !tbaa !116
  br label %180

180:                                              ; preds = %179, %176
  br label %181

181:                                              ; preds = %180, %175
  br label %182

182:                                              ; preds = %181, %171
  call void @llvm.lifetime.start.p0(i64 4, ptr %40) #13
  %183 = load ptr, ptr %5, align 8, !tbaa !4
  %184 = load ptr, ptr %5, align 8, !tbaa !4
  %185 = load i32, ptr %9, align 4, !tbaa !11
  %186 = trunc i32 %185 to i8
  %187 = call i32 @_ZN4Luau7CodeGen9IrBuilder5vmRegEh(ptr noundef nonnull align 8 dereferenceable(752) %184, i8 noundef zeroext %186)
  %188 = getelementptr inbounds nuw %"struct.Luau::CodeGen::IrOp", ptr %41, i32 0, i32 0
  store i32 %187, ptr %188, align 4
  %189 = load ptr, ptr %5, align 8, !tbaa !4
  %190 = load i32, ptr %10, align 4, !tbaa !11
  %191 = trunc i32 %190 to i8
  %192 = call i32 @_ZN4Luau7CodeGen9IrBuilder5vmRegEh(ptr noundef nonnull align 8 dereferenceable(752) %189, i8 noundef zeroext %191)
  %193 = getelementptr inbounds nuw %"struct.Luau::CodeGen::IrOp", ptr %42, i32 0, i32 0
  store i32 %192, ptr %193, align 4
  %194 = load ptr, ptr %5, align 8, !tbaa !4
  %195 = load i8, ptr %8, align 1, !tbaa !116
  %196 = call i32 @_ZN4Luau7CodeGen9IrBuilder4condENS0_11IrConditionE(ptr noundef nonnull align 8 dereferenceable(752) %194, i8 noundef zeroext %195)
  %197 = getelementptr inbounds nuw %"struct.Luau::CodeGen::IrOp", ptr %43, i32 0, i32 0
  store i32 %196, ptr %197, align 4
  %198 = getelementptr inbounds nuw %"struct.Luau::CodeGen::IrOp", ptr %41, i32 0, i32 0
  %199 = load i32, ptr %198, align 4
  %200 = getelementptr inbounds nuw %"struct.Luau::CodeGen::IrOp", ptr %42, i32 0, i32 0
  %201 = load i32, ptr %200, align 4
  %202 = getelementptr inbounds nuw %"struct.Luau::CodeGen::IrOp", ptr %43, i32 0, i32 0
  %203 = load i32, ptr %202, align 4
  %204 = call i32 @_ZN4Luau7CodeGen9IrBuilder4instENS0_5IrCmdENS0_4IrOpES3_S3_(ptr noundef nonnull align 8 dereferenceable(752) %183, i8 noundef zeroext 45, i32 %199, i32 %201, i32 %203)
  %205 = getelementptr inbounds nuw %"struct.Luau::CodeGen::IrOp", ptr %40, i32 0, i32 0
  store i32 %204, ptr %205, align 4
  %206 = load ptr, ptr %5, align 8, !tbaa !4
  call void @llvm.memcpy.p0.p0.i64(ptr align 4 %44, ptr align 4 %40, i64 4, i1 false), !tbaa.struct !112
  %207 = load ptr, ptr %5, align 8, !tbaa !4
  %208 = call i32 @_ZN4Luau7CodeGen9IrBuilder8constIntEi(ptr noundef nonnull align 8 dereferenceable(752) %207, i32 noundef 0)
  %209 = getelementptr inbounds nuw %"struct.Luau::CodeGen::IrOp", ptr %45, i32 0, i32 0
  store i32 %208, ptr %209, align 4
  %210 = load ptr, ptr %5, align 8, !tbaa !4
  %211 = call i32 @_ZN4Luau7CodeGen9IrBuilder4condENS0_11IrConditionE(ptr noundef nonnull align 8 dereferenceable(752) %210, i8 noundef zeroext 0)
  %212 = getelementptr inbounds nuw %"struct.Luau::CodeGen::IrOp", ptr %46, i32 0, i32 0
  store i32 %211, ptr %212, align 4
  %213 = load i8, ptr %39, align 1, !tbaa !113, !range !114, !noundef !115
  %214 = trunc i8 %213 to i1
  br i1 %214, label %215, label %216

215:                                              ; preds = %182
  br label %217

216:                                              ; preds = %182
  br label %217

217:                                              ; preds = %216, %215
  %218 = phi ptr [ %11, %215 ], [ %12, %216 ]
  call void @llvm.memcpy.p0.p0.i64(ptr align 4 %47, ptr align 4 %218, i64 4, i1 false), !tbaa.struct !112
  %219 = load i8, ptr %39, align 1, !tbaa !113, !range !114, !noundef !115
  %220 = trunc i8 %219 to i1
  br i1 %220, label %221, label %222

221:                                              ; preds = %217
  br label %223

222:                                              ; preds = %217
  br label %223

223:                                              ; preds = %222, %221
  %224 = phi ptr [ %12, %221 ], [ %11, %222 ]
  call void @llvm.memcpy.p0.p0.i64(ptr align 4 %48, ptr align 4 %224, i64 4, i1 false), !tbaa.struct !112
  %225 = getelementptr inbounds nuw %"struct.Luau::CodeGen::IrOp", ptr %44, i32 0, i32 0
  %226 = load i32, ptr %225, align 4
  %227 = getelementptr inbounds nuw %"struct.Luau::CodeGen::IrOp", ptr %45, i32 0, i32 0
  %228 = load i32, ptr %227, align 4
  %229 = getelementptr inbounds nuw %"struct.Luau::CodeGen::IrOp", ptr %46, i32 0, i32 0
  %230 = load i32, ptr %229, align 4
  %231 = getelementptr inbounds nuw %"struct.Luau::CodeGen::IrOp", ptr %47, i32 0, i32 0
  %232 = load i32, ptr %231, align 4
  %233 = getelementptr inbounds nuw %"struct.Luau::CodeGen::IrOp", ptr %48, i32 0, i32 0
  %234 = load i32, ptr %233, align 4
  %235 = call i32 @_ZN4Luau7CodeGen9IrBuilder4instENS0_5IrCmdENS0_4IrOpES3_S3_S3_S3_(ptr noundef nonnull align 8 dereferenceable(752) %206, i8 noundef zeroext 50, i32 %226, i32 %228, i32 %230, i32 %232, i32 %234)
  %236 = getelementptr inbounds nuw %"struct.Luau::CodeGen::IrOp", ptr %49, i32 0, i32 0
  store i32 %235, ptr %236, align 4
  %237 = load ptr, ptr %5, align 8, !tbaa !4
  call void @llvm.memcpy.p0.p0.i64(ptr align 4 %50, ptr align 4 %12, i64 4, i1 false), !tbaa.struct !112
  %238 = getelementptr inbounds nuw %"struct.Luau::CodeGen::IrOp", ptr %50, i32 0, i32 0
  %239 = load i32, ptr %238, align 4
  call void @_ZN4Luau7CodeGen9IrBuilder10beginBlockENS0_4IrOpE(ptr noundef nonnull align 8 dereferenceable(752) %237, i32 %239)
  call void @llvm.lifetime.end.p0(i64 4, ptr %40) #13
  call void @llvm.lifetime.end.p0(i64 1, ptr %39) #13
  call void @llvm.lifetime.end.p0(i64 4, ptr %28) #13
  call void @llvm.lifetime.end.p0(i64 4, ptr %26) #13
  call void @llvm.lifetime.end.p0(i64 4, ptr %20) #13
  call void @llvm.lifetime.end.p0(i64 4, ptr %14) #13
  call void @llvm.lifetime.end.p0(i64 4, ptr %13) #13
  call void @llvm.lifetime.end.p0(i64 4, ptr %12) #13
  call void @llvm.lifetime.end.p0(i64 4, ptr %11) #13
  call void @llvm.lifetime.end.p0(i64 4, ptr %10) #13
  call void @llvm.lifetime.end.p0(i64 4, ptr %9) #13
  ret void
}